target datalayout = "e-m:e-p270:32:32-p271:32:32-p272:64:64-i64:64-i128:128-f80:128-n8:16:32:64-S128"
target triple = "x86_64-pc-linux-gnu"

%union.pthread_mutex_t = type { %struct.__pthread_mutex_s }
%struct.__pthread_mutex_s = type { i32, i32, i32, i32, i32, i16, i16, %struct.__pthread_internal_list }
%struct.__pthread_internal_list = type { ptr, ptr }
%struct.___itt_global = type { [8 x i8], i64, i64, i64, i64, i64, i64, %union.pthread_mutex_t, ptr, ptr, ptr, ptr, ptr, ptr, ptr, ptr, i32, ptr, i32, ptr, ptr }

@__itt_histogram_submit_ptr__3_0 = hidden global ptr @__itt_histogram_submit_init_3_0, align 8
@__itt_init_ittlib_ptr = internal global ptr @__itt_init_ittlib, align 8

; Function Attrs: nounwind uwtable
define internal void @__itt_histogram_submit_init_3_0(ptr noundef %0, i64 noundef %1, ptr noundef %2, ptr noundef %3) #0 {
  %5 = alloca ptr, align 8
  %6 = alloca i64, align 8
  %7 = alloca ptr, align 8
  %8 = alloca ptr, align 8
  store ptr %0, ptr %5, align 8, !tbaa !47
  store i64 %1, ptr %6, align 8, !tbaa !25
  store ptr %2, ptr %7, align 8, !tbaa !21
  store ptr %3, ptr %8, align 8, !tbaa !21
  %9 = load volatile i64, ptr getelementptr inbounds nuw (%struct.___itt_global, ptr @__itt__ittapi_global, i32 0, i32 4), align 8, !tbaa !3
  %10 = icmp ne i64 %9, 0
  br i1 %10, label %17, label %11

11:                                               ; preds = %4
  %12 = load ptr, ptr getelementptr inbounds nuw (%struct.___itt_global, ptr @__itt__ittapi_global, i32 0, i32 13), align 8, !tbaa !20
  %13 = icmp eq ptr %12, null
  br i1 %13, label %14, label %17

14:                                               ; preds = %11
  %15 = load ptr, ptr @__itt_init_ittlib_ptr, align 8, !tbaa !21
  %16 = call i32 %15(ptr noundef null, i32 noundef -1)
  br label %17

17:                                               ; preds = %14, %11, %4
  %18 = load ptr, ptr @__itt_histogram_submit_ptr__3_0, align 8, !tbaa !21
  %19 = icmp ne ptr %18, null
  br i1 %19, label %20, label %29

20:                                               ; preds = %17
  %21 = load ptr, ptr @__itt_histogram_submit_ptr__3_0, align 8, !tbaa !21
  %22 = icmp ne ptr %21, @__itt_histogram_submit_init_3_0
  br i1 %22, label %23, label %29

23:                                               ; preds = %20
  %24 = load ptr, ptr @__itt_histogram_submit_ptr__3_0, align 8, !tbaa !21
  %25 = load ptr, ptr %5, align 8, !tbaa !47
  %26 = load i64, ptr %6, align 8, !tbaa !25
  %27 = load ptr, ptr %7, align 8, !tbaa !21
  %28 = load ptr, ptr %8, align 8, !tbaa !21
  call void %24(ptr noundef %25, i64 noundef %26, ptr noundef %27, ptr noundef %28)
  br label %30

29:                                               ; preds = %20, %17
  br label %30

30:                                               ; preds = %29, %23
  ret void
}